target datalayout = "e-m:e-p270:32:32-p271:32:32-p272:64:64-i64:64-i128:128-f80:128-n8:16:32:64-S128"
target triple = "x86_64-pc-linux-gnu"

%"class.std::__cxx11::basic_string" = type { %"struct.std::__cxx11::basic_string<char>::_Alloc_hider", i64, %union.anon }
%"struct.std::__cxx11::basic_string<char>::_Alloc_hider" = type { ptr }
%union.anon = type { i64, [8 x i8] }
%"class.google::protobuf::internal::LogMessage" = type { i32, ptr, i32, %"class.std::__cxx11::basic_string" }
%"class.google::protobuf::internal::LogFinisher" = type { i8 }

@.str = private unnamed_addr constant [37 x i8] c"third_party/protobuf-lite/strutil.cc\00", align 1
@.str.11 = private unnamed_addr constant [4 x i8] c"inf\00", align 1
@.str.12 = private unnamed_addr constant [5 x i8] c"-inf\00", align 1
@.str.13 = private unnamed_addr constant [4 x i8] c"nan\00", align 1
@.str.14 = private unnamed_addr constant [5 x i8] c"%.*g\00", align 1
@.str.28 = private unnamed_addr constant [76 x i8] c"CHECK failed: snprintf_result > 0 && snprintf_result < kFloatToBufferSize: \00", align 1

; Function Attrs: mustprogress nounwind uwtable
define noundef zeroext i1 @_ZN6google8protobuf11safe_strtofEPKcPf(ptr noundef %0, ptr noundef %1) #6 {
  %3 = alloca ptr, align 8
  %4 = alloca ptr, align 8
  %5 = alloca ptr, align 8
  store ptr %0, ptr %3, align 8, !tbaa !8
  store ptr %1, ptr %4, align 8, !tbaa !85
  call void @llvm.lifetime.start.p0(i64 8, ptr %5) #3
  %6 = call ptr @__errno_location() #23
  store i32 0, ptr %6, align 4, !tbaa !15
  %7 = load ptr, ptr %3, align 8, !tbaa !8
  %8 = call float @strtof(ptr noundef %7, ptr noundef %5) #3
  %9 = load ptr, ptr %4, align 8, !tbaa !85
  store float %8, ptr %9, align 4, !tbaa !77
  %10 = load ptr, ptr %3, align 8, !tbaa !8
  %11 = load i8, ptr %10, align 1, !tbaa !10
  %12 = sext i8 %11 to i32
  %13 = icmp ne i32 %12, 0
  br i1 %13, label %14, label %23

14:                                               ; preds = %2
  %15 = load ptr, ptr %5, align 8, !tbaa !8
  %16 = load i8, ptr %15, align 1, !tbaa !10
  %17 = sext i8 %16 to i32
  %18 = icmp eq i32 %17, 0
  br i1 %18, label %19, label %23

19:                                               ; preds = %14
  %20 = call ptr @__errno_location() #23
  %21 = load i32, ptr %20, align 4, !tbaa !15
  %22 = icmp eq i32 %21, 0
  br label %23

23:                                               ; preds = %19, %14, %2
  %24 = phi i1 [ false, %14 ], [ false, %2 ], [ %22, %19 ]
  call void @llvm.lifetime.end.p0(i64 8, ptr %5) #3
  ret i1 %24
}

; Function Attrs: mustprogress nounwind uwtable
define linkonce_odr noundef zeroext i1 @_ZSt5isnanf(float noundef %0) #6 comdat {
  %2 = alloca float, align 4
  store float %0, ptr %2, align 4, !tbaa !77
  %3 = load float, ptr %2, align 4, !tbaa !77
  %4 = call i1 @llvm.is.fpclass.f32(float %3, i32 3)
  ret i1 %4
}

; Function Attrs: mustprogress nounwind uwtable
define linkonce_odr noundef double @_ZNSt14numeric_limitsIdE8infinityEv() #6 comdat align 2 {
  ret double 0x7FF0000000000000
}

; Function Attrs: mustprogress uwtable
define noundef ptr @_ZN6google8protobuf13FloatToBufferEfPc(float noundef %0, ptr noundef %1) #4 personality ptr @__gxx_personality_v0 {
  %3 = alloca ptr, align 8
  %4 = alloca float, align 4
  %5 = alloca ptr, align 8
  %6 = alloca i32, align 4
  %7 = alloca %"class.google::protobuf::internal::LogMessage", align 8
  %8 = alloca i1, align 1
  %9 = alloca i1, align 1
  %10 = alloca ptr, align 8
  %11 = alloca i32, align 4
  %12 = alloca %"class.google::protobuf::internal::LogFinisher", align 1
  %13 = alloca float, align 4
  %14 = alloca i32, align 4
  %15 = alloca %"class.google::protobuf::internal::LogMessage", align 8
  %16 = alloca i1, align 1
  %17 = alloca i1, align 1
  %18 = alloca %"class.google::protobuf::internal::LogFinisher", align 1
  store float %0, ptr %4, align 4, !tbaa !77
  store ptr %1, ptr %5, align 8, !tbaa !8
  %19 = load float, ptr %4, align 4, !tbaa !77
  %20 = fpext float %19 to double
  %21 = call noundef double @_ZNSt14numeric_limitsIdE8infinityEv() #3
  %22 = fcmp oeq double %20, %21
  br i1 %22, label %23, label %27

23:                                               ; preds = %2
  %24 = load ptr, ptr %5, align 8, !tbaa !8
  %25 = call ptr @strcpy(ptr noundef %24, ptr noundef @.str.11) #3
  %26 = load ptr, ptr %5, align 8, !tbaa !8
  store ptr %26, ptr %3, align 8
  br label %136

27:                                               ; preds = %2
  %28 = load float, ptr %4, align 4, !tbaa !77
  %29 = fpext float %28 to double
  %30 = call noundef double @_ZNSt14numeric_limitsIdE8infinityEv() #3
  %31 = fneg double %30
  %32 = fcmp oeq double %29, %31
  br i1 %32, label %33, label %37

33:                                               ; preds = %27
  %34 = load ptr, ptr %5, align 8, !tbaa !8
  %35 = call ptr @strcpy(ptr noundef %34, ptr noundef @.str.12) #3
  %36 = load ptr, ptr %5, align 8, !tbaa !8
  store ptr %36, ptr %3, align 8
  br label %136

37:                                               ; preds = %27
  %38 = load float, ptr %4, align 4, !tbaa !77
  %39 = call noundef zeroext i1 @_ZSt5isnanf(float noundef %38)
  br i1 %39, label %40, label %44

40:                                               ; preds = %37
  %41 = load ptr, ptr %5, align 8, !tbaa !8
  %42 = call ptr @strcpy(ptr noundef %41, ptr noundef @.str.13) #3
  %43 = load ptr, ptr %5, align 8, !tbaa !8
  store ptr %43, ptr %3, align 8
  br label %136

44:                                               ; preds = %37
  br label %45

45:                                               ; preds = %44
  br label %46

46:                                               ; preds = %45
  call void @llvm.lifetime.start.p0(i64 4, ptr %6) #3
  %47 = load ptr, ptr %5, align 8, !tbaa !8
  %48 = load float, ptr %4, align 4, !tbaa !77
  %49 = fpext float %48 to double
  %50 = call i32 (ptr, i64, ptr, ...) @snprintf(ptr noundef %47, i64 noundef 24, ptr noundef @.str.14, i32 noundef 6, double noundef %49) #3
  store i32 %50, ptr %6, align 4, !tbaa !15
  br label %51

51:                                               ; preds = %69, %46
  br i1 false, label %52, label %85

52:                                               ; preds = %51
  %53 = load i32, ptr %6, align 4, !tbaa !15
  %54 = icmp sgt i32 %53, 0
  store i1 false, ptr %8, align 1
  store i1 false, ptr %9, align 1
  call void @llvm.lifetime.start.p0(i64 1, ptr %12) #3
  br i1 %54, label %55, label %59

55:                                               ; preds = %52
  %56 = load i32, ptr %6, align 4, !tbaa !15
  %57 = icmp slt i32 %56, 24
  br i1 %57, label %58, label %59

58:                                               ; preds = %55
  br label %63

59:                                               ; preds = %55, %52
  call void @llvm.lifetime.start.p0(i64 56, ptr %7) #3
  store i1 true, ptr %8, align 1
  call void @_ZN6google8protobuf8internal10LogMessageC1ENS0_8LogLevelEPKci(ptr noundef nonnull align 8 dereferenceable(56) %7, i32 noundef 3, ptr noundef @.str, i32 noundef 1383)
  store i1 true, ptr %9, align 1
  %60 = invoke noundef nonnull align 8 dereferenceable(56) ptr @_ZN6google8protobuf8internal10LogMessagelsEPKc(ptr noundef nonnull align 8 dereferenceable(56) %7, ptr noundef @.str.28)
          to label %61 unwind label %70

61:                                               ; preds = %59
  invoke void @_ZN6google8protobuf8internal11LogFinisheraSERNS1_10LogMessageE(ptr noundef nonnull align 1 dereferenceable(1) %12, ptr noundef nonnull align 8 dereferenceable(56) %60)
          to label %62 unwind label %74

62:                                               ; preds = %61
  br label %63

63:                                               ; preds = %62, %58
  call void @llvm.lifetime.end.p0(i64 1, ptr %12) #3
  %64 = load i1, ptr %9, align 1
  br i1 %64, label %65, label %66

65:                                               ; preds = %63
  call void @_ZN6google8protobuf8internal10LogMessageD1Ev(ptr noundef nonnull align 8 dereferenceable(56) %7) #3
  br label %66

66:                                               ; preds = %65, %63
  %67 = load i1, ptr %8, align 1
  br i1 %67, label %68, label %69

68:                                               ; preds = %66
  call void @llvm.lifetime.end.p0(i64 56, ptr %7) #3
  br label %69

69:                                               ; preds = %68, %66
  br label %51, !llvm.loop !79

70:                                               ; preds = %59
  %71 = landingpad { ptr, i32 }
          cleanup
  %72 = extractvalue { ptr, i32 } %71, 0
  store ptr %72, ptr %10, align 8
  %73 = extractvalue { ptr, i32 } %71, 1
  store i32 %73, ptr %11, align 4
  br label %78

74:                                               ; preds = %61
  %75 = landingpad { ptr, i32 }
          cleanup
  %76 = extractvalue { ptr, i32 } %75, 0
  store ptr %76, ptr %10, align 8
  %77 = extractvalue { ptr, i32 } %75, 1
  store i32 %77, ptr %11, align 4
  call void @llvm.lifetime.end.p0(i64 1, ptr %12) #3
  br label %78

78:                                               ; preds = %74, %70
  %79 = load i1, ptr %9, align 1
  br i1 %79, label %80, label %81

80:                                               ; preds = %78
  call void @_ZN6google8protobuf8internal10LogMessageD1Ev(ptr noundef nonnull align 8 dereferenceable(56) %7) #3
  br label %81

81:                                               ; preds = %80, %78
  %82 = load i1, ptr %8, align 1
  br i1 %82, label %83, label %84

83:                                               ; preds = %81
  call void @llvm.lifetime.end.p0(i64 56, ptr %7) #3
  br label %84

84:                                               ; preds = %83, %81
  br label %135

85:                                               ; preds = %51
  call void @llvm.lifetime.start.p0(i64 4, ptr %13) #3
  %86 = load ptr, ptr %5, align 8, !tbaa !8
  %87 = call noundef zeroext i1 @_ZN6google8protobuf11safe_strtofEPKcPf(ptr noundef %86, ptr noundef %13)
  br i1 %87, label %88, label %92

88:                                               ; preds = %85
  %89 = load float, ptr %13, align 4, !tbaa !77
  %90 = load float, ptr %4, align 4, !tbaa !77
  %91 = fcmp une float %89, %90
  br i1 %91, label %92, label %132

92:                                               ; preds = %88, %85
  call void @llvm.lifetime.start.p0(i64 4, ptr %14) #3
  %93 = load ptr, ptr %5, align 8, !tbaa !8
  %94 = load float, ptr %4, align 4, !tbaa !77
  %95 = fpext float %94 to double
  %96 = call i32 (ptr, i64, ptr, ...) @snprintf(ptr noundef %93, i64 noundef 24, ptr noundef @.str.14, i32 noundef 9, double noundef %95) #3
  store i32 %96, ptr %14, align 4, !tbaa !15
  br label %97

97:                                               ; preds = %115, %92
  br i1 false, label %98, label %131

98:                                               ; preds = %97
  %99 = load i32, ptr %14, align 4, !tbaa !15
  %100 = icmp sgt i32 %99, 0
  store i1 false, ptr %16, align 1
  store i1 false, ptr %17, align 1
  call void @llvm.lifetime.start.p0(i64 1, ptr %18) #3
  br i1 %100, label %101, label %105

101:                                              ; preds = %98
  %102 = load i32, ptr %14, align 4, !tbaa !15
  %103 = icmp slt i32 %102, 24
  br i1 %103, label %104, label %105

104:                                              ; preds = %101
  br label %109

105:                                              ; preds = %101, %98
  call void @llvm.lifetime.start.p0(i64 56, ptr %15) #3
  store i1 true, ptr %16, align 1
  call void @_ZN6google8protobuf8internal10LogMessageC1ENS0_8LogLevelEPKci(ptr noundef nonnull align 8 dereferenceable(56) %15, i32 noundef 3, ptr noundef @.str, i32 noundef 1391)
  store i1 true, ptr %17, align 1
  %106 = invoke noundef nonnull align 8 dereferenceable(56) ptr @_ZN6google8protobuf8internal10LogMessagelsEPKc(ptr noundef nonnull align 8 dereferenceable(56) %15, ptr noundef @.str.28)
          to label %107 unwind label %116

107:                                              ; preds = %105
  invoke void @_ZN6google8protobuf8internal11LogFinisheraSERNS1_10LogMessageE(ptr noundef nonnull align 1 dereferenceable(1) %18, ptr noundef nonnull align 8 dereferenceable(56) %106)
          to label %108 unwind label %120

108:                                              ; preds = %107
  br label %109

109:                                              ; preds = %108, %104
  call void @llvm.lifetime.end.p0(i64 1, ptr %18) #3
  %110 = load i1, ptr %17, align 1
  br i1 %110, label %111, label %112

111:                                              ; preds = %109
  call void @_ZN6google8protobuf8internal10LogMessageD1Ev(ptr noundef nonnull align 8 dereferenceable(56) %15) #3
  br label %112

112:                                              ; preds = %111, %109
  %113 = load i1, ptr %16, align 1
  br i1 %113, label %114, label %115

114:                                              ; preds = %112
  call void @llvm.lifetime.end.p0(i64 56, ptr %15) #3
  br label %115

115:                                              ; preds = %114, %112
  br label %97, !llvm.loop !80

116:                                              ; preds = %105
  %117 = landingpad { ptr, i32 }
          cleanup
  %118 = extractvalue { ptr, i32 } %117, 0
  store ptr %118, ptr %10, align 8
  %119 = extractvalue { ptr, i32 } %117, 1
  store i32 %119, ptr %11, align 4
  br label %124

120:                                              ; preds = %107
  %121 = landingpad { ptr, i32 }
          cleanup
  %122 = extractvalue { ptr, i32 } %121, 0
  store ptr %122, ptr %10, align 8
  %123 = extractvalue { ptr, i32 } %121, 1
  store i32 %123, ptr %11, align 4
  call void @llvm.lifetime.end.p0(i64 1, ptr %18) #3
  br label %124

124:                                              ; preds = %120, %116
  %125 = load i1, ptr %17, align 1
  br i1 %125, label %126, label %127

126:                                              ; preds = %124
  call void @_ZN6google8protobuf8internal10LogMessageD1Ev(ptr noundef nonnull align 8 dereferenceable(56) %15) #3
  br label %127

127:                                              ; preds = %126, %124
  %128 = load i1, ptr %16, align 1
  br i1 %128, label %129, label %130

129:                                              ; preds = %127
  call void @llvm.lifetime.end.p0(i64 56, ptr %15) #3
  br label %130

130:                                              ; preds = %129, %127
  call void @llvm.lifetime.end.p0(i64 4, ptr %14) #3
  call void @llvm.lifetime.end.p0(i64 4, ptr %13) #3
  br label %135

131:                                              ; preds = %97
  call void @llvm.lifetime.end.p0(i64 4, ptr %14) #3
  br label %132

132:                                              ; preds = %131, %88
  %133 = load ptr, ptr %5, align 8, !tbaa !8
  call void @_ZN6google8protobuf15DelocalizeRadixEPc(ptr noundef %133)
  %134 = load ptr, ptr %5, align 8, !tbaa !8
  store ptr %134, ptr %3, align 8
  call void @llvm.lifetime.end.p0(i64 4, ptr %13) #3
  call void @llvm.lifetime.end.p0(i64 4, ptr %6) #3
  br label %136

135:                                              ; preds = %130, %84
  call void @llvm.lifetime.end.p0(i64 4, ptr %6) #3
  br label %138

136:                                              ; preds = %132, %40, %33, %23
  %137 = load ptr, ptr %3, align 8
  ret ptr %137

138:                                              ; preds = %135
  %139 = load ptr, ptr %10, align 8
  %140 = load i32, ptr %11, align 4
  %141 = insertvalue { ptr, i32 } poison, ptr %139, 0
  %142 = insertvalue { ptr, i32 } %141, i32 %140, 1
  resume { ptr, i32 } %142
}