; Function Attrs: mustprogress nofree nounwind uwtable
define noundef ptr @_ZN6google8protobuf13FloatToBufferEfPc(float noundef %0, ptr noundef returned %1) local_unnamed_addr #11 personality ptr @__gxx_personality_v0 {
  %3 = alloca ptr, align 8
  %4 = fpext float %0 to double
  %5 = fcmp oeq float %0, 0x7FF0000000000000
  br i1 %5, label %6, label %7

6:                                                ; preds = %2
  store i32 6712937, ptr %1, align 1
  br label %28

7:                                                ; preds = %2
  %8 = fcmp oeq float %0, 0xFFF0000000000000
  br i1 %8, label %9, label %10

9:                                                ; preds = %7
  tail call void @llvm.memcpy.p0.p0.i64(ptr noundef nonnull align 1 dereferenceable(5) %1, ptr noundef nonnull align 1 dereferenceable(5) @.str.12, i64 5, i1 false) #31
  br label %28

10:                                               ; preds = %7
  %11 = fcmp uno float %0, 0.000000e+00
  br i1 %11, label %12, label %13

12:                                               ; preds = %10
  store i32 7233902, ptr %1, align 1
  br label %28

13:                                               ; preds = %10
  %14 = tail call i32 (ptr, i64, ptr, ...) @snprintf(ptr noundef nonnull dereferenceable(1) %1, i64 noundef 24, ptr noundef nonnull @.str.14, i32 noundef 6, double noundef %4) #31
  call void @llvm.lifetime.start.p0(i64 8, ptr nonnull %3) #31
  %15 = tail call ptr @__errno_location() #34
  store i32 0, ptr %15, align 4, !tbaa !65
  %16 = call float @strtof(ptr noundef nonnull %1, ptr noundef nonnull %3) #31
  %17 = load i8, ptr %1, align 1, !tbaa !11
  %.not.i = icmp eq i8 %17, 0
  br i1 %.not.i, label %_ZN6google8protobuf11safe_strtofEPKcPf.exit.thread, label %18

18:                                               ; preds = %13
  %19 = load ptr, ptr %3, align 8, !tbaa !75
  %20 = load i8, ptr %19, align 1, !tbaa !11
  %21 = icmp eq i8 %20, 0
  br i1 %21, label %_ZN6google8protobuf11safe_strtofEPKcPf.exit, label %_ZN6google8protobuf11safe_strtofEPKcPf.exit.thread

_ZN6google8protobuf11safe_strtofEPKcPf.exit.thread: ; preds = %18, %13
  call void @llvm.lifetime.end.p0(i64 8, ptr nonnull %3) #31
  br label %25

_ZN6google8protobuf11safe_strtofEPKcPf.exit:      ; preds = %18
  %22 = load i32, ptr %15, align 4, !tbaa !65
  %23 = icmp ne i32 %22, 0
  call void @llvm.lifetime.end.p0(i64 8, ptr nonnull %3) #31
  %24 = fcmp une float %16, %0
  %or.cond = select i1 %23, i1 true, i1 %24
  br i1 %or.cond, label %25, label %27

25:                                               ; preds = %_ZN6google8protobuf11safe_strtofEPKcPf.exit.thread, %_ZN6google8protobuf11safe_strtofEPKcPf.exit
  %26 = tail call i32 (ptr, i64, ptr, ...) @snprintf(ptr noundef nonnull dereferenceable(1) %1, i64 noundef 24, ptr noundef nonnull @.str.14, i32 noundef 9, double noundef %4) #31
  br label %27

27:                                               ; preds = %_ZN6google8protobuf11safe_strtofEPKcPf.exit, %25
  tail call void @_ZN6google8protobuf15DelocalizeRadixEPc(ptr noundef nonnull %1)
  br label %28

28:                                               ; preds = %27, %12, %9, %6
  ret ptr %1
}